; Function Attrs: nounwind uwtable
define internal noundef i32 @archive_compressor_program_free(ptr noundef captures(none) %0) #0 {
  %2 = getelementptr inbounds nuw i8, ptr %0, i64 72
  %3 = load ptr, ptr %2, align 8
  %.not = icmp eq ptr %3, null
  br i1 %.not, label %14, label %4

4:                                                ; preds = %1
  %5 = getelementptr inbounds nuw i8, ptr %3, i64 32
  %6 = load ptr, ptr %5, align 8
  tail call void @free(ptr noundef %6) #11
  %7 = getelementptr inbounds nuw i8, ptr %3, i64 8
  tail call void @archive_string_free(ptr noundef nonnull %7) #11
  %8 = load ptr, ptr %3, align 8
  %.not.i = icmp eq ptr %8, null
  br i1 %.not.i, label %__archive_write_program_free.exit, label %9

9:                                                ; preds = %4
  %10 = getelementptr inbounds nuw i8, ptr %8, i64 40
  %11 = load ptr, ptr %10, align 8
  tail call void @free(ptr noundef %11) #11
  %12 = getelementptr inbounds nuw i8, ptr %8, i64 16
  %13 = load ptr, ptr %12, align 8
  tail call void @free(ptr noundef %13) #11
  tail call void @free(ptr noundef nonnull %8) #11
  br label %__archive_write_program_free.exit

__archive_write_program_free.exit:                ; preds = %4, %9
  tail call void @free(ptr noundef nonnull %3) #11
  store ptr null, ptr %2, align 8
  br label %14

14:                                               ; preds = %__archive_write_program_free.exit, %1
  ret i32 0
}